; Function Attrs: mustprogress nounwind uwtable
define dso_local void @_ZNK5clang8QualType4dumpEPKc(ptr nocapture noundef nonnull readonly align 8 dereferenceable(8) %0, ptr noundef %1) local_unnamed_addr #0 align 2 {
  %.not = icmp eq ptr %1, null
  br i1 %.not, label %_ZN4llvm11raw_ostreamlsEPKc.exit6, label %_ZN4llvm9StringRefC2EPKc.exit.i

_ZN4llvm9StringRefC2EPKc.exit.i:                  ; preds = %2
  %3 = tail call noundef nonnull align 8 dereferenceable(96) ptr @_ZN4llvm4errsEv() #18
  %4 = tail call noundef i64 @strlen(ptr noundef nonnull dereferenceable(1) %1) #18
  %5 = getelementptr inbounds nuw i8, ptr %3, i64 24
  %6 = load ptr, ptr %5, align 8
  %7 = getelementptr inbounds nuw i8, ptr %3, i64 32
  %8 = load ptr, ptr %7, align 8
  %9 = ptrtoint ptr %6 to i64
  %10 = ptrtoint ptr %8 to i64
  %11 = sub i64 %9, %10
  %12 = icmp ugt i64 %4, %11
  br i1 %12, label %13, label %15

13:                                               ; preds = %_ZN4llvm9StringRefC2EPKc.exit.i
  %14 = tail call noundef nonnull align 8 dereferenceable(48) ptr @_ZN4llvm11raw_ostream5writeEPKcm(ptr noundef nonnull align 8 dereferenceable(48) %3, ptr noundef nonnull %1, i64 noundef %4) #18
  %.phi.trans.insert = getelementptr inbounds nuw i8, ptr %14, i64 32
  %.pre = load ptr, ptr %.phi.trans.insert, align 8
  br label %_ZN4llvm11raw_ostreamlsEPKc.exit

15:                                               ; preds = %_ZN4llvm9StringRefC2EPKc.exit.i
  %.not.i2.i = icmp eq i64 %4, 0
  br i1 %.not.i2.i, label %_ZN4llvm11raw_ostreamlsEPKc.exit, label %16

16:                                               ; preds = %15
  tail call void @llvm.memcpy.p0.p0.i64(ptr align 1 %8, ptr nonnull align 1 %1, i64 %4, i1 false)
  %17 = load ptr, ptr %7, align 8
  %18 = getelementptr inbounds i8, ptr %17, i64 %4
  store ptr %18, ptr %7, align 8
  br label %_ZN4llvm11raw_ostreamlsEPKc.exit

_ZN4llvm11raw_ostreamlsEPKc.exit:                 ; preds = %13, %15, %16
  %19 = phi ptr [ %.pre, %13 ], [ %18, %16 ], [ %8, %15 ]
  %.0.i.i = phi ptr [ %14, %13 ], [ %3, %16 ], [ %3, %15 ]
  %20 = getelementptr inbounds nuw i8, ptr %.0.i.i, i64 24
  %21 = load ptr, ptr %20, align 8
  %22 = ptrtoint ptr %21 to i64
  %23 = ptrtoint ptr %19 to i64
  %24 = sub i64 %22, %23
  %25 = icmp ult i64 %24, 2
  br i1 %25, label %26, label %28

26:                                               ; preds = %_ZN4llvm11raw_ostreamlsEPKc.exit
  %27 = tail call noundef nonnull align 8 dereferenceable(48) ptr @_ZN4llvm11raw_ostream5writeEPKcm(ptr noundef nonnull align 8 dereferenceable(48) %.0.i.i, ptr noundef nonnull @.str, i64 noundef 2) #18
  br label %_ZN4llvm11raw_ostreamlsEPKc.exit6

28:                                               ; preds = %_ZN4llvm11raw_ostreamlsEPKc.exit
  %29 = getelementptr inbounds nuw i8, ptr %.0.i.i, i64 32
  store i16 8250, ptr %19, align 1
  %30 = load ptr, ptr %29, align 8
  %31 = getelementptr inbounds i8, ptr %30, i64 2
  store ptr %31, ptr %29, align 8
  br label %_ZN4llvm11raw_ostreamlsEPKc.exit6

_ZN4llvm11raw_ostreamlsEPKc.exit6:                ; preds = %28, %26, %2
  tail call void @_ZNK5clang8QualType4dumpEv(ptr noundef nonnull align 8 dereferenceable(8) %0)
  ret void
}